Certificate:
    Data:
        Version: 3 (0x2)
        Serial Number: 5 (0x5)
        Signature Algorithm: sha1WithRSAEncryption
        Issuer: C=AU, ST=Some-State, O=Internet Widgits Pty Ltd, CN=Second
        Validity
            Not Before: Jul 28 20:13:30 2015 GMT
            Not After : Jul 25 20:13:30 2025 GMT
        Subject: C=AU, ST=Some-State, O=Internet Widgits Pty Ltd, CN=Client
        Subject Public Key Info:
            Public Key Algorithm: rsaEncryption
            RSA Public Key: (2048 bit)
                Modulus (2048 bit):
                    00:a5:33:69:71:79:d0:1d:9f:c6:13:3b:81:61:a6:
                    7e:d3:15:c4:8e:5e:40:f0:0c:f2:2f:67:74:66:63:
                    b4:77:77:4c:be:16:63:9d:71:ca:d4:c8:a9:92:40:
                    eb:59:c9:2a:8c:16:12:14:75:bb:5f:bb:95:c2:21:
                    b8:c5:a3:a7:db:6b:76:3f:f8:5a:87:55:9f:1d:c2:
                    94:48:9b:42:1e:a6:4f:97:0f:c2:6b:b0:8b:1d:af:
                    14:4b:3d:9d:0f:f6:34:70:23:11:0d:f2:7e:d7:d5:
                    ac:e1:59:a8:7e:48:8a:73:03:d6:11:d2:c6:58:0b:
                    48:dc:e6:62:a7:3f:82:3d:13:c4:b2:e1:41:62:3d:
                    48:3b:74:a0:4e:30:5f:76:83:ca:1f:8c:ac:75:66:
                    0c:a1:ba:bd:f6:50:a3:65:7f:96:b7:fb:81:44:aa:
                    1b:63:12:87:57:40:38:a4:9a:97:83:91:15:9c:32:
                    79:6b:3f:22:ca:12:b9:a3:17:c0:19:40:29:6d:08:
                    df:59:f2:eb:88:85:86:4e:ff:90:4a:11:05:a7:01:
                    25:b4:12:97:90:90:24:de:8d:11:cb:11:43:02:62:
                    95:fa:e2:87:8f:92:01:4d:4d:ca:43:84:dd:ad:68:
                    0f:8f:4b:ad:87:43:91:7b:dc:fc:d1:76:8f:78:57:
                    e5:1b
                Exponent: 65537 (0x10001)
        X509v3 extensions:
            X509v3 Basic Constraints: 
                CA:FALSE
            Netscape Comment: 
                OpenSSL Generated Certificate
            X509v3 Subject Key Identifier: 
                53:0A:43:03:CC:89:AB:E8:B5:2E:61:9E:31:0F:FB:79:AE:8A:8E:52
            X509v3 Authority Key Identifier: 
                keyid:40:2B:2E:D2:09:C6:86:42:1D:85:5A:E7:E0:15:92:2F:BA:EC:39:77

    Signature Algorithm: sha1WithRSAEncryption
        7b:03:cb:5e:88:58:64:a7:01:4a:1f:00:af:1b:6a:d8:93:4a:
        2e:1b:75:98:fc:2a:97:93:a9:8c:ab:d4:e5:83:6c:ae:00:d5:
        2d:8e:cd:1e:c7:f0:50:a0:27:9d:f1:41:fd:09:b1:b6:c8:8a:
        a6:1e:28:0e:58:83:67:ca:8f:d2:07:e5:78:60:7a:c5:04:b3:
        1e:5d:dd:5e:d5:c7:f9:df:4b:4d:f5:d3:f1:5b:16:ff:05:e8:
        4a:44:06:27:9b:d7:de:32:b4:cf:79:df:b6:35:5d:2a:b3:af:
        4d:e5:b9:43:2e:77:f4:bb:90:be:f9:9f:03:04:19:a1:96:9d:
        f1:13:e8:b1:84:42:d7:1e:98:06:a4:a4:04:61:cb:c2:d5:fb:
        66:03:62:18:97:d5:26:a1:7d:64:e9:e7:d4:43:50:70:91:c3:
        03:ef:9a:7e:15:32:62:67:1b:f0:26:15:7a:8d:7a:5b:ef:3a:
        d7:88:70:44:e9:76:35:a6:ac:7b:c0:ad:ee:be:cc:65:5c:40:
        bd:69:ec:33:0f:28:24:b9:4e:c4:ec:69:fe:5c:af:2f:cf:e8:
        f2:9f:e6:e7:a2:22:52:b1:b1:91:a4:2f:75:b4:96:f4:1f:8a:
        f9:7c:86:fb:77:52:12:41:83:e1:31:dc:6e:c7:00:d5:2b:c2:
        8e:ee:65:fe
-----BEGIN CERTIFICATE-----
MIIDojCCAoqgAwIBAgIBBTANBgkqhkiG9w0BAQUFADBWMQswCQYDVQQGEwJBVTET
MBEGA1UECBMKU29tZS1TdGF0ZTEhMB8GA1UEChMYSW50ZXJuZXQgV2lkZ2l0cyBQ
dHkgTHRkMQ8wDQYDVQQDEwZTZWNvbmQwHhcNMTUwNzI4MjAxMzMwWhcNMjUwNzI1
MjAxMzMwWjBWMQswCQYDVQQGEwJBVTETMBEGA1UECBMKU29tZS1TdGF0ZTEhMB8G
A1UEChMYSW50ZXJuZXQgV2lkZ2l0cyBQdHkgTHRkMQ8wDQYDVQQDEwZDbGllbnQw
ggEiMA0GCSqGSIb3DQEBAQUAA4IBDwAwggEKAoIBAQClM2lxedAdn8YTO4Fhpn7T
FcSOXkDwDPIvZ3RmY7R3d0y+FmOdccrUyKmSQOtZySqMFhIUdbtfu5XCIbjFo6fb
a3Y/+FqHVZ8dwpRIm0Iepk+XD8JrsIsdrxRLPZ0P9jRwIxEN8n7X1azhWah+SIpz
A9YR0sZYC0jc5mKnP4I9E8Sy4UFiPUg7dKBOMF92g8ofjKx1Zgyhur32UKNlf5a3
+4FEqhtjEodXQDikmpeDkRWcMnlrPyLKErmjF8AZQCltCN9Z8uuIhYZO/5BKEQWn
ASW0EpeQkCTejRHLEUMCYpX64oePkgFNTcpDhN2taA+PS62HQ5F73PzRdo94V+Ub
AgMBAAGjezB5MAkGA1UdEwQCMAAwLAYJYIZIAYb4QgENBB8WHU9wZW5TU0wgR2Vu
ZXJhdGVkIENlcnRpZmljYXRlMB0GA1UdDgQWBBRTCkMDzImr6LUuYZ4xD/t5roqO
UjAfBgNVHSMEGDAWgBRAKy7SCcaGQh2FWufgFZIvuuw5dzANBgkqhkiG9w0BAQUF
AAOCAQEAewPLXohYZKcBSh8Arxtq2JNKLht1mPwql5OpjKvU5YNsrgDVLY7NHsfw
UKAnnfFB/QmxtsiKph4oDliDZ8qP0gfleGB6xQSzHl3dXtXH+d9LTfXT8VsW/wXo
SkQGJ5vX3jK0z3nftjVdKrOvTeW5Qy539LuQvvmfAwQZoZad8RPosYRC1x6YBqSk
BGHLwtX7ZgNiGJfVJqF9ZOnn1ENQcJHDA++afhUyYmcb8CYVeo16W+8614hwROl2
Naase8Ct7r7MZVxAvWnsMw8oJLlOxOxp/lyvL8/o8p/m56IiUrGxkaQvdbSW9B+K
+XyG+3dSEkGD4THcbscA1SvCju5l/g==
-----END CERTIFICATE-----
