Certificate:
    Data:
        Version: 3 (0x2)
        Serial Number: 1 (0x1)
        Signature Algorithm: sha1WithRSAEncryption
        Issuer: C=AU, ST=Some-State, O=Internet Widgits Pty Ltd, CN=Trusted CA/emailAddress=trustedca@example.com
        Validity
            Not Before: Jul 28 20:07:47 2015 GMT
            Not After : Jul 25 20:07:47 2025 GMT
        Subject: C=AU, ST=Some-State, O=Internet Widgits Pty Ltd, CN=Second
        Subject Public Key Info:
            Public Key Algorithm: rsaEncryption
            RSA Public Key: (2048 bit)
                Modulus (2048 bit):
                    00:b8:10:40:ed:34:78:9c:f2:30:bb:be:a7:c8:48:
                    12:25:32:1f:50:02:f1:eb:4c:14:49:9a:ea:67:69:
                    ea:d7:e0:05:aa:c3:65:6f:20:5c:1f:cf:81:fb:17:
                    43:ed:1f:b6:5a:7f:5d:3a:be:0e:e8:cf:8f:a9:6d:
                    ae:e7:29:7b:78:ae:0d:a5:1e:6f:fb:e5:78:34:2f:
                    86:0e:1f:88:ad:15:02:8e:3c:3d:97:f2:0e:40:2c:
                    eb:45:c3:27:23:3a:bb:e9:5a:ab:29:eb:b2:67:a9:
                    f4:b4:ed:14:9c:dd:a7:16:72:48:81:0c:17:c6:4c:
                    ed:cd:7f:08:ee:d6:ea:7f:fe:e8:0b:e3:b0:43:21:
                    e5:2f:9b:4a:91:78:40:1f:5b:5c:d1:87:55:01:8d:
                    8d:e9:74:a1:fb:7d:1e:d0:d9:0c:83:e1:0f:7a:f4:
                    c2:47:e2:b6:6e:58:ab:32:80:75:dc:80:5d:1b:76:
                    a1:d4:b5:b9:63:bd:83:03:40:59:4a:7d:85:6b:33:
                    5c:68:61:ff:83:46:a2:cb:5b:05:15:83:e1:a4:dd:
                    81:31:bb:cb:01:97:d0:f6:93:b0:82:3e:c8:aa:ff:
                    69:f8:34:b8:58:d9:91:af:68:52:72:ed:ba:d2:93:
                    01:55:93:d1:28:1e:30:e3:3d:75:aa:73:e5:6a:77:
                    83:9f
                Exponent: 65537 (0x10001)
        X509v3 extensions:
            X509v3 Subject Key Identifier: 
                40:2B:2E:D2:09:C6:86:42:1D:85:5A:E7:E0:15:92:2F:BA:EC:39:77
            X509v3 Authority Key Identifier: 
                keyid:C9:C4:8B:B8:2E:53:3D:EC:B3:A2:35:17:26:7E:89:D9:31:21:F5:C9

            X509v3 Basic Constraints: critical
                CA:TRUE, pathlen:0
            X509v3 Key Usage: critical
                Digital Signature, Certificate Sign, CRL Sign
    Signature Algorithm: sha1WithRSAEncryption
        ab:37:38:fd:30:35:15:02:a4:96:02:6a:40:28:3e:ac:7a:38:
        95:19:36:0e:8e:25:ee:5b:7d:7c:91:26:6a:85:fb:94:2c:f0:
        2d:da:70:6c:e1:28:a9:34:56:e5:1f:54:52:9c:d7:5f:d8:71:
        9d:1d:ae:1e:b5:9c:e4:72:c6:fa:26:d7:29:1b:01:c6:2d:df:
        a7:5d:79:8d:23:43:92:2f:70:d5:c2:81:50:cb:71:81:46:6a:
        1f:a9:bc:ce:ee:7e:33:3d:32:4c:5c:1f:b3:dc:b4:db:d2:9b:
        b5:81:68:a9:8e:f5:36:cb:c8:e7:03:8f:9d:c9:73:4f:f2:b7:
        1d:83:fb:0b:a0:33:3c:86:37:31:dd:6c:1c:54:bd:3b:ef:f1:
        d2:a8:92:7a:bf:29:2e:f3:bf:2a:37:87:bf:66:6b:a8:68:2c:
        93:37:26:23:9a:5d:0d:99:11:32:42:15:05:2b:68:d5:57:0d:
        8b:10:a3:3a:fb:90:ae:f8:64:c6:de:e5:84:10:14:61:0a:3f:
        16:f5:bf:b0:28:be:76:b4:77:1e:6a:b5:f9:b3:62:b4:7d:82:
        4b:aa:1b:6a:2e:5b:70:e1:63:a5:8d:2d:c6:65:48:85:d9:a5:
        7c:d1:b8:fb:c3:e8:11:ab:0b:fa:ff:e0:54:3f:1e:b3:3e:2c:
        e4:de:2a:6d
-----BEGIN CERTIFICATE-----
MIIDuDCCAqCgAwIBAgIBATANBgkqhkiG9w0BAQUFADCBgDELMAkGA1UEBhMCQVUx
EzARBgNVBAgTClNvbWUtU3RhdGUxITAfBgNVBAoTGEludGVybmV0IFdpZGdpdHMg
UHR5IEx0ZDETMBEGA1UEAxMKVHJ1c3RlZCBDQTEkMCIGCSqGSIb3DQEJARYVdHJ1
c3RlZGNhQGV4YW1wbGUuY29tMB4XDTE1MDcyODIwMDc0N1oXDTI1MDcyNTIwMDc0
N1owVjELMAkGA1UEBhMCQVUxEzARBgNVBAgTClNvbWUtU3RhdGUxITAfBgNVBAoT
GEludGVybmV0IFdpZGdpdHMgUHR5IEx0ZDEPMA0GA1UEAxMGU2Vjb25kMIIBIjAN
BgkqhkiG9w0BAQEFAAOCAQ8AMIIBCgKCAQEAuBBA7TR4nPIwu76nyEgSJTIfUALx
60wUSZrqZ2nq1+AFqsNlbyBcH8+B+xdD7R+2Wn9dOr4O6M+PqW2u5yl7eK4NpR5v
++V4NC+GDh+IrRUCjjw9l/IOQCzrRcMnIzq76VqrKeuyZ6n0tO0UnN2nFnJIgQwX
xkztzX8I7tbqf/7oC+OwQyHlL5tKkXhAH1tc0YdVAY2N6XSh+30e0NkMg+EPevTC
R+K2blirMoB13IBdG3ah1LW5Y72DA0BZSn2FazNcaGH/g0aiy1sFFYPhpN2BMbvL
AZfQ9pOwgj7Iqv9p+DS4WNmRr2hScu260pMBVZPRKB4w4z11qnPlaneDnwIDAQAB
o2YwZDAdBgNVHQ4EFgQUQCsu0gnGhkIdhVrn4BWSL7rsOXcwHwYDVR0jBBgwFoAU
ycSLuC5TPeyzojUXJn6J2TEh9ckwEgYDVR0TAQH/BAgwBgEB/wIBADAOBgNVHQ8B
Af8EBAMCAYYwDQYJKoZIhvcNAQEFBQADggEBAKs3OP0wNRUCpJYCakAoPqx6OJUZ
Ng6OJe5bfXyRJmqF+5Qs8C3acGzhKKk0VuUfVFKc11/YcZ0drh61nORyxvom1ykb
AcYt36ddeY0jQ5IvcNXCgVDLcYFGah+pvM7ufjM9MkxcH7PctNvSm7WBaKmO9TbL
yOcDj53Jc0/ytx2D+wugMzyGNzHdbBxUvTvv8dKoknq/KS7zvyo3h79ma6hoLJM3
JiOaXQ2ZETJCFQUraNVXDYsQozr7kK74ZMbe5YQQFGEKPxb1v7Aovna0dx5qtfmz
YrR9gkuqG2ouW3DhY6WNLcZlSIXZpXzRuPvD6BGrC/r/4FQ/HrM+LOTeKm0=
-----END CERTIFICATE-----
