Certificate:
    Data:
        Version: 3 (0x2)
        Serial Number: 6 (0x6)
        Signature Algorithm: sha1WithRSAEncryption
        Issuer: C=AU, ST=Some-State, O=Internet Widgits Pty Ltd, CN=Second
        Validity
            Not Before: Jul 28 20:13:43 2015 GMT
            Not After : Jul 25 20:13:43 2025 GMT
        Subject: C=AU, ST=Some-State, O=Internet Widgits Pty Ltd, CN=127.0.0.1
        Subject Public Key Info:
            Public Key Algorithm: rsaEncryption
            RSA Public Key: (2048 bit)
                Modulus (2048 bit):
                    00:e3:95:5c:55:3d:94:91:42:d2:3a:fe:a6:59:0f:
                    2d:16:fa:77:4c:29:77:01:d2:fe:00:8d:8d:0a:15:
                    22:b8:6a:7d:4a:a9:93:dc:8f:11:28:f4:c2:4d:b1:
                    45:d1:54:35:bf:f3:fe:08:fc:99:5a:7a:31:32:2b:
                    d4:ee:0b:f2:2a:80:a8:9c:d3:06:18:3c:f8:27:86:
                    9b:2e:6d:eb:03:9b:1e:6f:3f:f0:b6:75:c5:44:d5:
                    52:d8:d9:41:58:c2:3f:2c:9a:e0:05:f9:30:e4:f3:
                    10:5f:d3:d7:fe:70:ce:a8:45:9b:24:75:45:f8:7b:
                    0f:45:6d:ea:fb:c3:b3:65:44:9d:b4:d5:be:7d:6b:
                    b8:92:f7:7d:c5:98:0b:fd:1f:b8:c2:7e:50:ee:1f:
                    c8:97:0b:16:94:f7:60:c5:57:15:7a:2a:e8:0b:6e:
                    07:ef:58:e5:26:8e:54:c5:22:ae:85:3e:42:fd:0e:
                    60:22:be:23:0c:a8:e7:3e:29:72:93:24:59:e9:fa:
                    0c:21:60:c6:a5:53:ef:89:b1:79:8d:78:89:8b:0f:
                    61:62:54:39:49:20:ae:c8:de:97:b1:45:d0:92:0c:
                    ae:4a:ea:8d:da:16:27:76:07:3a:2e:31:de:25:fe:
                    a9:e3:fc:ab:af:2f:d9:b3:2c:35:1c:df:a4:b7:e5:
                    83:b5
                Exponent: 65537 (0x10001)
        X509v3 extensions:
            X509v3 Basic Constraints: 
                CA:FALSE
            Netscape Comment: 
                OpenSSL Generated Certificate
            X509v3 Subject Key Identifier: 
                52:AE:C6:B8:9C:C8:88:B2:E2:42:85:2E:4B:D8:1C:B9:D1:AD:A0:6A
            X509v3 Authority Key Identifier: 
                keyid:40:2B:2E:D2:09:C6:86:42:1D:85:5A:E7:E0:15:92:2F:BA:EC:39:77

    Signature Algorithm: sha1WithRSAEncryption
        3e:28:7d:2f:ec:73:68:89:eb:96:f6:3c:45:7f:c0:62:b2:ba:
        a9:b7:37:bd:be:74:54:9d:8b:ac:bd:cf:96:6a:9d:1c:e2:ed:
        90:2f:f9:7f:70:34:24:e6:53:2e:b5:f7:ad:cd:31:37:aa:36:
        1f:b7:0f:3f:ed:67:c8:df:ff:c2:4d:e0:6d:bc:75:15:1c:ab:
        85:a5:19:20:b7:0e:ee:00:65:b1:7c:a1:08:0a:db:22:9d:77:
        59:14:84:63:a4:51:c2:47:fc:87:09:72:ae:ba:de:92:a4:36:
        64:04:d8:12:27:ee:2b:d9:d5:cc:05:c8:a4:5d:df:74:5d:1c:
        18:6f:ff:a3:27:17:25:c8:df:87:55:36:14:a9:3e:e3:4d:39:
        8d:ef:ff:52:f1:74:f3:2d:32:b5:cf:bc:20:18:52:70:00:40:
        d4:75:9f:da:2b:ca:f5:ba:43:97:85:04:a1:e7:df:43:e6:57:
        43:bd:81:db:63:11:38:16:ef:98:92:f2:19:37:94:b4:87:fb:
        80:b2:77:39:db:88:6e:17:1d:c8:32:a9:3e:57:85:50:b3:51:
        a7:3d:bc:29:d5:a9:01:99:4c:97:67:00:75:c8:5f:83:eb:34:
        90:6e:7e:d0:6d:1f:a5:49:12:80:d9:ac:f3:e7:92:58:55:f1:
        65:9f:4f:95
-----BEGIN CERTIFICATE-----
MIIDpTCCAo2gAwIBAgIBBjANBgkqhkiG9w0BAQUFADBWMQswCQYDVQQGEwJBVTET
MBEGA1UECBMKU29tZS1TdGF0ZTEhMB8GA1UEChMYSW50ZXJuZXQgV2lkZ2l0cyBQ
dHkgTHRkMQ8wDQYDVQQDEwZTZWNvbmQwHhcNMTUwNzI4MjAxMzQzWhcNMjUwNzI1
MjAxMzQzWjBZMQswCQYDVQQGEwJBVTETMBEGA1UECBMKU29tZS1TdGF0ZTEhMB8G
A1UEChMYSW50ZXJuZXQgV2lkZ2l0cyBQdHkgTHRkMRIwEAYDVQQDEwkxMjcuMC4w
LjEwggEiMA0GCSqGSIb3DQEBAQUAA4IBDwAwggEKAoIBAQDjlVxVPZSRQtI6/qZZ
Dy0W+ndMKXcB0v4AjY0KFSK4an1KqZPcjxEo9MJNsUXRVDW/8/4I/JlaejEyK9Tu
C/IqgKic0wYYPPgnhpsubesDmx5vP/C2dcVE1VLY2UFYwj8smuAF+TDk8xBf09f+
cM6oRZskdUX4ew9Fber7w7NlRJ201b59a7iS933FmAv9H7jCflDuH8iXCxaU92DF
VxV6KugLbgfvWOUmjlTFIq6FPkL9DmAiviMMqOc+KXKTJFnp+gwhYMalU++JsXmN
eImLD2FiVDlJIK7I3pexRdCSDK5K6o3aFid2BzouMd4l/qnj/KuvL9mzLDUc36S3
5YO1AgMBAAGjezB5MAkGA1UdEwQCMAAwLAYJYIZIAYb4QgENBB8WHU9wZW5TU0wg
R2VuZXJhdGVkIENlcnRpZmljYXRlMB0GA1UdDgQWBBRSrsa4nMiIsuJChS5L2By5
0a2gajAfBgNVHSMEGDAWgBRAKy7SCcaGQh2FWufgFZIvuuw5dzANBgkqhkiG9w0B
AQUFAAOCAQEAPih9L+xzaInrlvY8RX/AYrK6qbc3vb50VJ2LrL3PlmqdHOLtkC/5
f3A0JOZTLrX3rc0xN6o2H7cPP+1nyN//wk3gbbx1FRyrhaUZILcO7gBlsXyhCArb
Ip13WRSEY6RRwkf8hwlyrrrekqQ2ZATYEifuK9nVzAXIpF3fdF0cGG//oycXJcjf
h1U2FKk+4005je//UvF08y0ytc+8IBhScABA1HWf2ivK9bpDl4UEoeffQ+ZXQ72B
22MROBbvmJLyGTeUtIf7gLJ3OduIbhcdyDKpPleFULNRpz28KdWpAZlMl2cAdchf
g+s0kG5+0G0fpUkSgNms8+eSWFXxZZ9PlQ==
-----END CERTIFICATE-----
